; ModuleID = '43/209.c'
source_filename = "43/209.c"
target datalayout = "e-m:e-p270:32:32-p271:32:32-p272:64:64-i64:64-f80:128-n8:16:32:64-S128"
target triple = "x86_64-pc-linux-gnu"

@.str = private unnamed_addr constant [3 x i8] c"%d\00", align 1
@.str.1 = private unnamed_addr constant [7 x i8] c"%d %d\0A\00", align 1

; Function Attrs: noinline nounwind uwtable
define dso_local i32 @main() #0 {
  %1 = alloca i32, align 4
  %2 = alloca i32, align 4
  %3 = alloca i32, align 4
  store i32 0, i32* %1, align 4
  %4 = call i32 (i8*, ...) @__isoc99_scanf(i8* getelementptr inbounds ([3 x i8], [3 x i8]* @.str, i64 0, i64 0), i32* %2)
  store i32 3, i32* %3, align 4
  br label %5

5:                                                ; preds = %27, %0
  %6 = load i32, i32* %3, align 4
  %7 = load i32, i32* %2, align 4
  %8 = sdiv i32 %7, 2
  %9 = icmp sle i32 %6, %8
  br i1 %9, label %10, label %30

10:                                               ; preds = %5
  %11 = load i32, i32* %3, align 4
  %12 = call i32 @fun(i32 %11)
  %13 = icmp eq i32 %12, 1
  br i1 %13, label %14, label %26

14:                                               ; preds = %10
  %15 = load i32, i32* %2, align 4
  %16 = load i32, i32* %3, align 4
  %17 = sub nsw i32 %15, %16
  %18 = call i32 @fun(i32 %17)
  %19 = icmp eq i32 %18, 1
  br i1 %19, label %20, label %26

20:                                               ; preds = %14
  %21 = load i32, i32* %3, align 4
  %22 = load i32, i32* %2, align 4
  %23 = load i32, i32* %3, align 4
  %24 = sub nsw i32 %22, %23
  %25 = call i32 (i8*, ...) @printf(i8* getelementptr inbounds ([7 x i8], [7 x i8]* @.str.1, i64 0, i64 0), i32 %21, i32 %24)
  br label %26

26:                                               ; preds = %20, %14, %10
  br label %27

27:                                               ; preds = %26
  %28 = load i32, i32* %3, align 4
  %29 = add nsw i32 %28, 2
  store i32 %29, i32* %3, align 4
  br label %5

30:                                               ; preds = %5
  ret i32 0
}

declare dso_local i32 @__isoc99_scanf(i8*, ...) #1

; Function Attrs: noinline nounwind uwtable
define dso_local i32 @fun(i32 %0) #0 {
  %2 = alloca i32, align 4
  %3 = alloca i32, align 4
  %4 = alloca i32, align 4
  store i32 %0, i32* %3, align 4
  store i32 2, i32* %4, align 4
  br label %5

5:                                                ; preds = %19, %1
  %6 = load i32, i32* %4, align 4
  %7 = load i32, i32* %3, align 4
  %8 = sitofp i32 %7 to double
  %9 = call double @sqrt(double %8) #3
  %10 = fptosi double %9 to i32
  %11 = icmp sle i32 %6, %10
  br i1 %11, label %12, label %22

12:                                               ; preds = %5
  %13 = load i32, i32* %3, align 4
  %14 = load i32, i32* %4, align 4
  %15 = srem i32 %13, %14
  %16 = icmp eq i32 %15, 0
  br i1 %16, label %17, label %18

17:                                               ; preds = %12
  store i32 0, i32* %2, align 4
  br label %23

18:                                               ; preds = %12
  br label %19

19:                                               ; preds = %18
  %20 = load i32, i32* %4, align 4
  %21 = add nsw i32 %20, 1
  store i32 %21, i32* %4, align 4
  br label %5

22:                                               ; preds = %5
  store i32 1, i32* %2, align 4
  br label %23

23:                                               ; preds = %22, %17
  %24 = load i32, i32* %2, align 4
  ret i32 %24
}

declare dso_local i32 @printf(i8*, ...) #1

; Function Attrs: nounwind
declare dso_local double @sqrt(double) #2


!llvm.module.flags = !{!0}
!llvm.ident = !{!1}

!0 = !{i32 1, !"wchar_size", i32 4}
!1 = !{!"clang version 10.0.0-4ubuntu1 "}
